target datalayout = "e-m:e-p270:32:32-p271:32:32-p272:64:64-i64:64-i128:128-f80:128-n8:16:32:64-S128"
target triple = "x86_64-pc-linux-gnu"

%"class.std::__cxx11::basic_string" = type { %"struct.std::__cxx11::basic_string<char>::_Alloc_hider", i64, %union.anon.0 }
%"struct.std::__cxx11::basic_string<char>::_Alloc_hider" = type { ptr }
%union.anon.0 = type { i64, [8 x i8] }
%"class.Assimp::D3MF::D3MFExporter" = type { %"class.std::__cxx11::basic_string", ptr, ptr, %"class.std::__cxx11::basic_ostringstream", %"class.std::__cxx11::basic_ostringstream", %"class.std::__cxx11::basic_ostringstream", %"class.std::vector", %"class.std::vector.4" }
%"class.std::__cxx11::basic_ostringstream" = type { %"class.std::basic_ostream.base", %"class.std::__cxx11::basic_stringbuf", %"class.std::basic_ios" }
%"class.std::basic_ostream.base" = type { ptr }
%"class.std::__cxx11::basic_stringbuf" = type { %"class.std::basic_streambuf", i32, %"class.std::__cxx11::basic_string" }
%"class.std::basic_streambuf" = type { ptr, ptr, ptr, ptr, ptr, ptr, ptr, %"class.std::locale" }
%"class.std::locale" = type { ptr }
%"class.std::basic_ios" = type { %"class.std::ios_base", ptr, i8, i8, ptr, ptr, ptr, ptr }
%"class.std::ios_base" = type { ptr, i64, i64, i32, i32, i32, ptr, %"struct.std::ios_base::_Words", [8 x %"struct.std::ios_base::_Words"], i32, ptr, %"class.std::locale" }
%"struct.std::ios_base::_Words" = type { ptr, i64 }
%"class.std::vector" = type { %"struct.std::_Vector_base" }
%"struct.std::_Vector_base" = type { %"struct.std::_Vector_base<unsigned int, std::allocator<unsigned int>>::_Vector_impl" }
%"struct.std::_Vector_base<unsigned int, std::allocator<unsigned int>>::_Vector_impl" = type { %"struct.std::_Vector_base<unsigned int, std::allocator<unsigned int>>::_Vector_impl_data" }
%"struct.std::_Vector_base<unsigned int, std::allocator<unsigned int>>::_Vector_impl_data" = type { ptr, ptr, ptr }
%"class.std::vector.4" = type { %"struct.std::_Vector_base.5" }
%"struct.std::_Vector_base.5" = type { %"struct.std::_Vector_base<Assimp::D3MF::OpcPackageRelationship *, std::allocator<Assimp::D3MF::OpcPackageRelationship *>>::_Vector_impl" }
%"struct.std::_Vector_base<Assimp::D3MF::OpcPackageRelationship *, std::allocator<Assimp::D3MF::OpcPackageRelationship *>>::_Vector_impl" = type { %"struct.std::_Vector_base<Assimp::D3MF::OpcPackageRelationship *, std::allocator<Assimp::D3MF::OpcPackageRelationship *>>::_Vector_impl_data" }
%"struct.std::_Vector_base<Assimp::D3MF::OpcPackageRelationship *, std::allocator<Assimp::D3MF::OpcPackageRelationship *>>::_Vector_impl_data" = type { ptr, ptr, ptr }

; Function Attrs: mustprogress uwtable
define hidden noundef zeroext i1 @_ZN6Assimp4D3MF12D3MFExporter13exportArchiveEPKc(ptr noundef nonnull align 8 dereferenceable(1224) %0, ptr noundef %1) #0 align 2 {
  %3 = alloca i1, align 1
  %4 = alloca ptr, align 8
  %5 = alloca ptr, align 8
  %6 = alloca i8, align 1
  %7 = alloca i32, align 4
  store ptr %0, ptr %4, align 8
  store ptr %1, ptr %5, align 8
  %8 = load ptr, ptr %4, align 8
  call void @llvm.lifetime.start.p0(i64 1, ptr %6) #16
  store i8 1, ptr %6, align 1
  %9 = load ptr, ptr %5, align 8
  %10 = call ptr @zip_open(ptr noundef %9, i32 noundef 6, i8 noundef signext 119)
  %11 = getelementptr inbounds nuw %"class.Assimp::D3MF::D3MFExporter", ptr %8, i32 0, i32 1
  store ptr %10, ptr %11, align 8
  %12 = getelementptr inbounds nuw %"class.Assimp::D3MF::D3MFExporter", ptr %8, i32 0, i32 1
  %13 = load ptr, ptr %12, align 8
  %14 = icmp eq ptr null, %13
  br i1 %14, label %15, label %16

15:                                               ; preds = %2
  store i1 false, ptr %3, align 1
  store i32 1, ptr %7, align 4
  br label %46

16:                                               ; preds = %2
  %17 = call noundef zeroext i1 @_ZN6Assimp4D3MF12D3MFExporter18exportContentTypesEv(ptr noundef nonnull align 8 dereferenceable(1224) %8)
  %18 = zext i1 %17 to i32
  %19 = load i8, ptr %6, align 1, !range !3, !noundef !4
  %20 = trunc i8 %19 to i1
  %21 = zext i1 %20 to i32
  %22 = or i32 %21, %18
  %23 = icmp ne i32 %22, 0
  %24 = zext i1 %23 to i8
  store i8 %24, ptr %6, align 1
  %25 = call noundef zeroext i1 @_ZN6Assimp4D3MF12D3MFExporter13export3DModelEv(ptr noundef nonnull align 8 dereferenceable(1224) %8)
  %26 = zext i1 %25 to i32
  %27 = load i8, ptr %6, align 1, !range !3, !noundef !4
  %28 = trunc i8 %27 to i1
  %29 = zext i1 %28 to i32
  %30 = or i32 %29, %26
  %31 = icmp ne i32 %30, 0
  %32 = zext i1 %31 to i8
  store i8 %32, ptr %6, align 1
  %33 = call noundef zeroext i1 @_ZN6Assimp4D3MF12D3MFExporter15exportRelationsEv(ptr noundef nonnull align 8 dereferenceable(1224) %8)
  %34 = zext i1 %33 to i32
  %35 = load i8, ptr %6, align 1, !range !3, !noundef !4
  %36 = trunc i8 %35 to i1
  %37 = zext i1 %36 to i32
  %38 = or i32 %37, %34
  %39 = icmp ne i32 %38, 0
  %40 = zext i1 %39 to i8
  store i8 %40, ptr %6, align 1
  %41 = getelementptr inbounds nuw %"class.Assimp::D3MF::D3MFExporter", ptr %8, i32 0, i32 1
  %42 = load ptr, ptr %41, align 8
  call void @zip_close(ptr noundef %42)
  %43 = getelementptr inbounds nuw %"class.Assimp::D3MF::D3MFExporter", ptr %8, i32 0, i32 1
  store ptr null, ptr %43, align 8
  %44 = load i8, ptr %6, align 1, !range !3, !noundef !4
  %45 = trunc i8 %44 to i1
  store i1 %45, ptr %3, align 1
  store i32 1, ptr %7, align 4
  br label %46

46:                                               ; preds = %16, %15
  call void @llvm.lifetime.end.p0(i64 1, ptr %6) #16
  %47 = load i1, ptr %3, align 1
  ret i1 %47
}