; Function Attrs: mustprogress uwtable
define hidden noundef zeroext i1 @_ZN6Assimp4D3MF12D3MFExporter13exportArchiveEPKc(ptr noundef nonnull align 8 dereferenceable(1224) initializes((32, 40)) %0, ptr noundef %1) local_unnamed_addr #0 align 2 {
  %3 = tail call ptr @zip_open(ptr noundef %1, i32 noundef 6, i8 noundef signext 119)
  %4 = getelementptr inbounds nuw i8, ptr %0, i64 32
  store ptr %3, ptr %4, align 8
  %5 = icmp ne ptr %3, null
  br i1 %5, label %6, label %11

6:                                                ; preds = %2
  %7 = tail call noundef zeroext i1 @_ZN6Assimp4D3MF12D3MFExporter18exportContentTypesEv(ptr noundef nonnull align 8 dereferenceable(1224) %0)
  %8 = tail call noundef zeroext i1 @_ZN6Assimp4D3MF12D3MFExporter13export3DModelEv(ptr noundef nonnull align 8 dereferenceable(1224) %0)
  %9 = tail call noundef zeroext i1 @_ZN6Assimp4D3MF12D3MFExporter15exportRelationsEv(ptr noundef nonnull align 8 dereferenceable(1224) %0)
  %10 = load ptr, ptr %4, align 8
  tail call void @zip_close(ptr noundef %10)
  store ptr null, ptr %4, align 8
  br label %11

11:                                               ; preds = %2, %6
  ret i1 %5
}